target datalayout = "e-m:e-p270:32:32-p271:32:32-p272:64:64-i64:64-i128:128-f80:128-n8:16:32:64-S128"
target triple = "x86_64-pc-linux-gnu"

%struct.hb_font_funcs_t = type { %struct.hb_object_header_t, ptr, ptr, %"union.hb_font_funcs_t::get_t" }
%struct.hb_object_header_t = type { %struct.hb_reference_count_t, %struct.hb_atomic_int_t, %struct.hb_atomic_ptr_t }
%struct.hb_reference_count_t = type { %struct.hb_atomic_int_t }
%struct.hb_atomic_int_t = type { i32 }
%struct.hb_atomic_ptr_t = type { ptr }
%"union.hb_font_funcs_t::get_t" = type { %"struct.hb_font_funcs_t::get_t::get_funcs_t" }
%"struct.hb_font_funcs_t::get_t::get_funcs_t" = type { ptr, ptr, ptr, ptr, ptr, ptr, ptr, ptr, ptr, ptr, ptr, ptr, ptr, ptr, ptr, ptr, ptr, ptr, ptr }
%struct.hb_atomic_ptr_t.1 = type { ptr }
%struct.hb_atomic_ptr_t.5 = type { ptr }
%struct.hb_font_t = type { %struct.hb_object_header_t, i32, i32, ptr, ptr, i32, i32, float, float, i8, i32, i32, float, float, float, float, i64, i64, i32, i32, float, i32, i32, ptr, ptr, ptr, ptr, ptr, %struct.hb_shaper_object_dataset_t }
%struct.hb_shaper_object_dataset_t = type { ptr, %struct.hb_shaper_lazy_loader_t, %struct.hb_shaper_lazy_loader_t.2 }
%struct.hb_shaper_lazy_loader_t = type { %struct.hb_lazy_loader_t }
%struct.hb_lazy_loader_t = type { %struct.hb_atomic_ptr_t.1 }
%struct.hb_shaper_lazy_loader_t.2 = type { %struct.hb_lazy_loader_t.3 }
%struct.hb_lazy_loader_t.3 = type { %struct.hb_atomic_ptr_t.5 }
%struct.anon.0 = type { ptr, ptr, ptr, ptr, ptr, ptr, ptr, ptr, ptr, ptr, ptr, ptr, ptr, ptr, ptr, ptr, ptr, ptr, ptr }
%struct.hb_paint_funcs_t = type { %struct.hb_object_header_t, %struct.anon.158, ptr, ptr }
%struct.anon.158 = type { ptr, ptr, ptr, ptr, ptr, ptr, ptr, ptr, ptr, ptr, ptr, ptr, ptr, ptr }
%struct.anon.159 = type { ptr, ptr, ptr, ptr, ptr, ptr, ptr, ptr, ptr, ptr, ptr, ptr, ptr, ptr }

; Function Attrs: mustprogress uwtable
define linkonce_odr hidden void @_ZN16hb_paint_funcs_t13pop_transformEPv(ptr noundef nonnull align 8 dereferenceable(144) %0, ptr noundef %1) #0 comdat align 2 {
  %3 = alloca ptr, align 8
  %4 = alloca ptr, align 8
  store ptr %0, ptr %3, align 8
  store ptr %1, ptr %4, align 8
  %5 = load ptr, ptr %3, align 8
  %6 = getelementptr inbounds %struct.hb_paint_funcs_t, ptr %5, i32 0, i32 1
  %7 = getelementptr inbounds %struct.anon.158, ptr %6, i32 0, i32 1
  %8 = load ptr, ptr %7, align 8
  %9 = load ptr, ptr %4, align 8
  %10 = getelementptr inbounds %struct.hb_paint_funcs_t, ptr %5, i32 0, i32 2
  %11 = load ptr, ptr %10, align 8
  %12 = icmp ne ptr %11, null
  br i1 %12, label %14, label %13

13:                                               ; preds = %2
  br label %19

14:                                               ; preds = %2
  %15 = getelementptr inbounds %struct.hb_paint_funcs_t, ptr %5, i32 0, i32 2
  %16 = load ptr, ptr %15, align 8
  %17 = getelementptr inbounds %struct.anon.159, ptr %16, i32 0, i32 1
  %18 = load ptr, ptr %17, align 8
  br label %19

19:                                               ; preds = %14, %13
  %20 = phi ptr [ null, %13 ], [ %18, %14 ]
  call void %8(ptr noundef %5, ptr noundef %9, ptr noundef %20)
  ret void
}

; Function Attrs: mustprogress uwtable
define linkonce_odr hidden void @_ZN9hb_font_t11paint_glyphEjP16hb_paint_funcs_tPvjj(ptr noundef nonnull align 8 dereferenceable(192) %0, i32 noundef %1, ptr noundef %2, ptr noundef %3, i32 noundef %4, i32 noundef %5) #0 comdat align 2 {
  %7 = alloca ptr, align 8
  %8 = alloca i32, align 4
  %9 = alloca ptr, align 8
  %10 = alloca ptr, align 8
  %11 = alloca i32, align 4
  %12 = alloca i32, align 4
  store ptr %0, ptr %7, align 8
  store i32 %1, ptr %8, align 4
  store ptr %2, ptr %9, align 8
  store ptr %3, ptr %10, align 8
  store i32 %4, ptr %11, align 4
  store i32 %5, ptr %12, align 4
  %13 = load ptr, ptr %7, align 8
  %14 = getelementptr inbounds %struct.hb_font_t, ptr %13, i32 0, i32 25
  %15 = load ptr, ptr %14, align 8
  %16 = getelementptr inbounds %struct.hb_font_funcs_t, ptr %15, i32 0, i32 3
  %17 = getelementptr inbounds %"struct.hb_font_funcs_t::get_t::get_funcs_t", ptr %16, i32 0, i32 18
  %18 = load ptr, ptr %17, align 8
  %19 = getelementptr inbounds %struct.hb_font_t, ptr %13, i32 0, i32 26
  %20 = load ptr, ptr %19, align 8
  %21 = load i32, ptr %8, align 4
  %22 = load ptr, ptr %9, align 8
  %23 = load ptr, ptr %10, align 8
  %24 = load i32, ptr %11, align 4
  %25 = load i32, ptr %12, align 4
  %26 = getelementptr inbounds %struct.hb_font_t, ptr %13, i32 0, i32 25
  %27 = load ptr, ptr %26, align 8
  %28 = getelementptr inbounds %struct.hb_font_funcs_t, ptr %27, i32 0, i32 1
  %29 = load ptr, ptr %28, align 8
  %30 = icmp ne ptr %29, null
  br i1 %30, label %32, label %31

31:                                               ; preds = %6
  br label %39

32:                                               ; preds = %6
  %33 = getelementptr inbounds %struct.hb_font_t, ptr %13, i32 0, i32 25
  %34 = load ptr, ptr %33, align 8
  %35 = getelementptr inbounds %struct.hb_font_funcs_t, ptr %34, i32 0, i32 1
  %36 = load ptr, ptr %35, align 8
  %37 = getelementptr inbounds %struct.anon.0, ptr %36, i32 0, i32 18
  %38 = load ptr, ptr %37, align 8
  br label %39

39:                                               ; preds = %32, %31
  %40 = phi ptr [ null, %31 ], [ %38, %32 ]
  call void %18(ptr noundef %13, ptr noundef %20, i32 noundef %21, ptr noundef %22, ptr noundef %23, i32 noundef %24, i32 noundef %25, ptr noundef %40)
  ret void
}

; Function Attrs: mustprogress uwtable
define linkonce_odr hidden void @_ZN16hb_paint_funcs_t14push_transformEPvffffff(ptr noundef nonnull align 8 dereferenceable(144) %0, ptr noundef %1, float noundef %2, float noundef %3, float noundef %4, float noundef %5, float noundef %6, float noundef %7) #0 comdat align 2 {
  %9 = alloca ptr, align 8
  %10 = alloca ptr, align 8
  %11 = alloca float, align 4
  %12 = alloca float, align 4
  %13 = alloca float, align 4
  %14 = alloca float, align 4
  %15 = alloca float, align 4
  %16 = alloca float, align 4
  store ptr %0, ptr %9, align 8
  store ptr %1, ptr %10, align 8
  store float %2, ptr %11, align 4
  store float %3, ptr %12, align 4
  store float %4, ptr %13, align 4
  store float %5, ptr %14, align 4
  store float %6, ptr %15, align 4
  store float %7, ptr %16, align 4
  %17 = load ptr, ptr %9, align 8
  %18 = getelementptr inbounds %struct.hb_paint_funcs_t, ptr %17, i32 0, i32 1
  %19 = getelementptr inbounds %struct.anon.158, ptr %18, i32 0, i32 0
  %20 = load ptr, ptr %19, align 8
  %21 = load ptr, ptr %10, align 8
  %22 = load float, ptr %11, align 4
  %23 = load float, ptr %12, align 4
  %24 = load float, ptr %13, align 4
  %25 = load float, ptr %14, align 4
  %26 = load float, ptr %15, align 4
  %27 = load float, ptr %16, align 4
  %28 = getelementptr inbounds %struct.hb_paint_funcs_t, ptr %17, i32 0, i32 2
  %29 = load ptr, ptr %28, align 8
  %30 = icmp ne ptr %29, null
  br i1 %30, label %32, label %31

31:                                               ; preds = %8
  br label %37

32:                                               ; preds = %8
  %33 = getelementptr inbounds %struct.hb_paint_funcs_t, ptr %17, i32 0, i32 2
  %34 = load ptr, ptr %33, align 8
  %35 = getelementptr inbounds %struct.anon.159, ptr %34, i32 0, i32 0
  %36 = load ptr, ptr %35, align 8
  br label %37

37:                                               ; preds = %32, %31
  %38 = phi ptr [ null, %31 ], [ %36, %32 ]
  call void %20(ptr noundef %17, ptr noundef %21, float noundef %22, float noundef %23, float noundef %24, float noundef %25, float noundef %26, float noundef %27, ptr noundef %38)
  ret void
}

; Function Attrs: mustprogress uwtable
define internal void @_ZL27hb_font_paint_glyph_defaultP9hb_font_tPvjP16hb_paint_funcs_tS1_jjS1_(ptr noundef %0, ptr noundef %1, i32 noundef %2, ptr noundef %3, ptr noundef %4, i32 noundef %5, i32 noundef %6, ptr noundef %7) #0 {
  %9 = alloca ptr, align 8
  %10 = alloca ptr, align 8
  %11 = alloca i32, align 4
  %12 = alloca ptr, align 8
  %13 = alloca ptr, align 8
  %14 = alloca i32, align 4
  %15 = alloca i32, align 4
  %16 = alloca ptr, align 8
  store ptr %0, ptr %9, align 8
  store ptr %1, ptr %10, align 8
  store i32 %2, ptr %11, align 4
  store ptr %3, ptr %12, align 8
  store ptr %4, ptr %13, align 8
  store i32 %5, ptr %14, align 4
  store i32 %6, ptr %15, align 4
  store ptr %7, ptr %16, align 8
  %17 = load ptr, ptr %12, align 8
  %18 = load ptr, ptr %13, align 8
  %19 = load ptr, ptr %9, align 8
  %20 = getelementptr inbounds %struct.hb_font_t, ptr %19, i32 0, i32 3
  %21 = load ptr, ptr %20, align 8
  %22 = getelementptr inbounds %struct.hb_font_t, ptr %21, i32 0, i32 5
  %23 = load i32, ptr %22, align 8
  %24 = icmp ne i32 %23, 0
  br i1 %24, label %25, label %37

25:                                               ; preds = %8
  %26 = load ptr, ptr %9, align 8
  %27 = getelementptr inbounds %struct.hb_font_t, ptr %26, i32 0, i32 5
  %28 = load i32, ptr %27, align 8
  %29 = sitofp i32 %28 to float
  %30 = load ptr, ptr %9, align 8
  %31 = getelementptr inbounds %struct.hb_font_t, ptr %30, i32 0, i32 3
  %32 = load ptr, ptr %31, align 8
  %33 = getelementptr inbounds %struct.hb_font_t, ptr %32, i32 0, i32 5
  %34 = load i32, ptr %33, align 8
  %35 = sitofp i32 %34 to float
  %36 = fdiv float %29, %35
  br label %38

37:                                               ; preds = %8
  br label %38

38:                                               ; preds = %37, %25
  %39 = phi float [ %36, %25 ], [ 0.000000e+00, %37 ]
  %40 = load ptr, ptr %9, align 8
  %41 = getelementptr inbounds %struct.hb_font_t, ptr %40, i32 0, i32 3
  %42 = load ptr, ptr %41, align 8
  %43 = getelementptr inbounds %struct.hb_font_t, ptr %42, i32 0, i32 6
  %44 = load i32, ptr %43, align 4
  %45 = icmp ne i32 %44, 0
  br i1 %45, label %46, label %68

46:                                               ; preds = %38
  %47 = load ptr, ptr %9, align 8
  %48 = getelementptr inbounds %struct.hb_font_t, ptr %47, i32 0, i32 12
  %49 = load float, ptr %48, align 4
  %50 = load ptr, ptr %9, align 8
  %51 = getelementptr inbounds %struct.hb_font_t, ptr %50, i32 0, i32 3
  %52 = load ptr, ptr %51, align 8
  %53 = getelementptr inbounds %struct.hb_font_t, ptr %52, i32 0, i32 12
  %54 = load float, ptr %53, align 4
  %55 = fsub float %49, %54
  %56 = load ptr, ptr %9, align 8
  %57 = getelementptr inbounds %struct.hb_font_t, ptr %56, i32 0, i32 5
  %58 = load i32, ptr %57, align 8
  %59 = sitofp i32 %58 to float
  %60 = fmul float %55, %59
  %61 = load ptr, ptr %9, align 8
  %62 = getelementptr inbounds %struct.hb_font_t, ptr %61, i32 0, i32 3
  %63 = load ptr, ptr %62, align 8
  %64 = getelementptr inbounds %struct.hb_font_t, ptr %63, i32 0, i32 6
  %65 = load i32, ptr %64, align 4
  %66 = sitofp i32 %65 to float
  %67 = fdiv float %60, %66
  br label %69

68:                                               ; preds = %38
  br label %69

69:                                               ; preds = %68, %46
  %70 = phi float [ %67, %46 ], [ 0.000000e+00, %68 ]
  %71 = load ptr, ptr %9, align 8
  %72 = getelementptr inbounds %struct.hb_font_t, ptr %71, i32 0, i32 3
  %73 = load ptr, ptr %72, align 8
  %74 = getelementptr inbounds %struct.hb_font_t, ptr %73, i32 0, i32 6
  %75 = load i32, ptr %74, align 4
  %76 = icmp ne i32 %75, 0
  br i1 %76, label %77, label %89

77:                                               ; preds = %69
  %78 = load ptr, ptr %9, align 8
  %79 = getelementptr inbounds %struct.hb_font_t, ptr %78, i32 0, i32 6
  %80 = load i32, ptr %79, align 4
  %81 = sitofp i32 %80 to float
  %82 = load ptr, ptr %9, align 8
  %83 = getelementptr inbounds %struct.hb_font_t, ptr %82, i32 0, i32 3
  %84 = load ptr, ptr %83, align 8
  %85 = getelementptr inbounds %struct.hb_font_t, ptr %84, i32 0, i32 6
  %86 = load i32, ptr %85, align 4
  %87 = sitofp i32 %86 to float
  %88 = fdiv float %81, %87
  br label %90

89:                                               ; preds = %69
  br label %90

90:                                               ; preds = %89, %77
  %91 = phi float [ %88, %77 ], [ 0.000000e+00, %89 ]
  call void @_ZN16hb_paint_funcs_t14push_transformEPvffffff(ptr noundef nonnull align 8 dereferenceable(144) %17, ptr noundef %18, float noundef %39, float noundef %70, float noundef 0.000000e+00, float noundef %91, float noundef 0.000000e+00, float noundef 0.000000e+00)
  %92 = load ptr, ptr %9, align 8
  %93 = getelementptr inbounds %struct.hb_font_t, ptr %92, i32 0, i32 3
  %94 = load ptr, ptr %93, align 8
  %95 = load i32, ptr %11, align 4
  %96 = load ptr, ptr %12, align 8
  %97 = load ptr, ptr %13, align 8
  %98 = load i32, ptr %14, align 4
  %99 = load i32, ptr %15, align 4
  call void @_ZN9hb_font_t11paint_glyphEjP16hb_paint_funcs_tPvjj(ptr noundef nonnull align 8 dereferenceable(192) %94, i32 noundef %95, ptr noundef %96, ptr noundef %97, i32 noundef %98, i32 noundef %99)
  %100 = load ptr, ptr %12, align 8
  %101 = load ptr, ptr %13, align 8
  call void @_ZN16hb_paint_funcs_t13pop_transformEPv(ptr noundef nonnull align 8 dereferenceable(144) %100, ptr noundef %101)
  ret void
}