; Function Attrs: mustprogress uwtable
define internal void @_ZL27hb_font_paint_glyph_defaultP9hb_font_tPvjP16hb_paint_funcs_tS1_jjS1_(ptr nocapture noundef readonly %0, ptr nocapture readnone %1, i32 noundef %2, ptr noundef %3, ptr noundef %4, i32 noundef %5, i32 noundef %6, ptr nocapture readnone %7) #1 {
  %9 = getelementptr inbounds i8, ptr %0, i64 24
  %10 = load ptr, ptr %9, align 8
  %11 = getelementptr inbounds i8, ptr %10, i64 40
  %12 = load i32, ptr %11, align 8
  %.not = icmp eq i32 %12, 0
  br i1 %.not, label %19, label %13

13:                                               ; preds = %8
  %14 = getelementptr inbounds i8, ptr %0, i64 40
  %15 = load i32, ptr %14, align 8
  %16 = sitofp i32 %15 to float
  %17 = sitofp i32 %12 to float
  %18 = fdiv float %16, %17
  br label %19

19:                                               ; preds = %8, %13
  %20 = phi float [ %18, %13 ], [ 0.000000e+00, %8 ]
  %21 = getelementptr inbounds i8, ptr %10, i64 44
  %22 = load i32, ptr %21, align 4
  %.not22 = icmp eq i32 %22, 0
  br i1 %.not22, label %.thread, label %23

23:                                               ; preds = %19
  %24 = getelementptr inbounds i8, ptr %0, i64 68
  %25 = load float, ptr %24, align 4
  %26 = getelementptr inbounds i8, ptr %10, i64 68
  %27 = load float, ptr %26, align 4
  %28 = fsub float %25, %27
  %29 = getelementptr inbounds i8, ptr %0, i64 40
  %30 = load i32, ptr %29, align 8
  %31 = sitofp i32 %30 to float
  %32 = fmul float %28, %31
  %33 = sitofp i32 %22 to float
  %34 = getelementptr inbounds i8, ptr %0, i64 44
  %35 = load i32, ptr %34, align 4
  %36 = sitofp i32 %35 to float
  %37 = insertelement <2 x float> poison, float %32, i64 0
  %38 = insertelement <2 x float> %37, float %36, i64 1
  %39 = insertelement <2 x float> poison, float %33, i64 0
  %40 = shufflevector <2 x float> %39, <2 x float> poison, <2 x i32> zeroinitializer
  %41 = fdiv <2 x float> %38, %40
  br label %.thread

.thread:                                          ; preds = %19, %23
  %42 = phi <2 x float> [ %41, %23 ], [ zeroinitializer, %19 ]
  %43 = getelementptr inbounds i8, ptr %3, i64 16
  %44 = load ptr, ptr %43, align 8
  %45 = getelementptr inbounds i8, ptr %3, i64 128
  %46 = load ptr, ptr %45, align 8
  %.not.i = icmp eq ptr %46, null
  br i1 %.not.i, label %_ZN16hb_paint_funcs_t14push_transformEPvffffff.exit, label %47

47:                                               ; preds = %.thread
  %48 = load ptr, ptr %46, align 8
  br label %_ZN16hb_paint_funcs_t14push_transformEPvffffff.exit

_ZN16hb_paint_funcs_t14push_transformEPvffffff.exit: ; preds = %.thread, %47
  %49 = phi ptr [ %48, %47 ], [ null, %.thread ]
  %50 = extractelement <2 x float> %42, i64 0
  %51 = extractelement <2 x float> %42, i64 1
  tail call void %44(ptr noundef nonnull %3, ptr noundef %4, float noundef %20, float noundef %50, float noundef 0.000000e+00, float noundef %51, float noundef 0.000000e+00, float noundef 0.000000e+00, ptr noundef %49)
  %52 = load ptr, ptr %9, align 8
  %53 = getelementptr inbounds i8, ptr %52, i64 144
  %54 = load ptr, ptr %53, align 8
  %55 = getelementptr inbounds i8, ptr %54, i64 176
  %56 = load ptr, ptr %55, align 8
  %57 = getelementptr inbounds i8, ptr %52, i64 152
  %58 = load ptr, ptr %57, align 8
  %59 = getelementptr inbounds i8, ptr %54, i64 16
  %60 = load ptr, ptr %59, align 8
  %.not.i24 = icmp eq ptr %60, null
  br i1 %.not.i24, label %_ZN9hb_font_t11paint_glyphEjP16hb_paint_funcs_tPvjj.exit, label %61

61:                                               ; preds = %_ZN16hb_paint_funcs_t14push_transformEPvffffff.exit
  %62 = getelementptr inbounds i8, ptr %60, i64 144
  %63 = load ptr, ptr %62, align 8
  br label %_ZN9hb_font_t11paint_glyphEjP16hb_paint_funcs_tPvjj.exit

_ZN9hb_font_t11paint_glyphEjP16hb_paint_funcs_tPvjj.exit: ; preds = %_ZN16hb_paint_funcs_t14push_transformEPvffffff.exit, %61
  %64 = phi ptr [ %63, %61 ], [ null, %_ZN16hb_paint_funcs_t14push_transformEPvffffff.exit ]
  tail call void %56(ptr noundef nonnull %52, ptr noundef %58, i32 noundef %2, ptr noundef nonnull %3, ptr noundef %4, i32 noundef %5, i32 noundef %6, ptr noundef %64)
  %65 = getelementptr inbounds i8, ptr %3, i64 24
  %66 = load ptr, ptr %65, align 8
  %67 = load ptr, ptr %45, align 8
  %.not.i25 = icmp eq ptr %67, null
  br i1 %.not.i25, label %_ZN16hb_paint_funcs_t13pop_transformEPv.exit, label %68

68:                                               ; preds = %_ZN9hb_font_t11paint_glyphEjP16hb_paint_funcs_tPvjj.exit
  %69 = getelementptr inbounds i8, ptr %67, i64 8
  %70 = load ptr, ptr %69, align 8
  br label %_ZN16hb_paint_funcs_t13pop_transformEPv.exit

_ZN16hb_paint_funcs_t13pop_transformEPv.exit:     ; preds = %_ZN9hb_font_t11paint_glyphEjP16hb_paint_funcs_tPvjj.exit, %68
  %71 = phi ptr [ %70, %68 ], [ null, %_ZN9hb_font_t11paint_glyphEjP16hb_paint_funcs_tPvjj.exit ]
  tail call void %66(ptr noundef nonnull %3, ptr noundef %4, ptr noundef %71)
  ret void
}